target datalayout = "e-m:e-p270:32:32-p271:32:32-p272:64:64-i64:64-i128:128-f80:128-n8:16:32:64-S128"
target triple = "x86_64-pc-linux-gnu"

%"class.cv::Mat" = type { i32, i32, i32, i32, ptr, ptr, ptr, ptr, ptr, ptr, %"struct.cv::MatSize", %"struct.cv::MatStep" }
%"struct.cv::MatSize" = type { ptr }
%"struct.cv::MatStep" = type { ptr, [2 x i64] }
%"class.cv::Range" = type { i32, i32 }

; Function Attrs: mustprogress nounwind uwtable
define linkonce_odr hidden noundef ptr @_ZN2cv3Mat3ptrIfEEPT_i(ptr noundef nonnull align 8 dereferenceable(96) %0, i32 noundef %1) #5 comdat align 2 {
  %3 = alloca ptr, align 8
  %4 = alloca i32, align 4
  store ptr %0, ptr %3, align 8
  store i32 %1, ptr %4, align 4
  %5 = load ptr, ptr %3, align 8
  %6 = getelementptr inbounds %"class.cv::Mat", ptr %5, i32 0, i32 4
  %7 = load ptr, ptr %6, align 8
  %8 = getelementptr inbounds %"class.cv::Mat", ptr %5, i32 0, i32 11
  %9 = getelementptr inbounds %"struct.cv::MatStep", ptr %8, i32 0, i32 0
  %10 = load ptr, ptr %9, align 8
  %11 = getelementptr inbounds i64, ptr %10, i64 0
  %12 = load i64, ptr %11, align 8
  %13 = load i32, ptr %4, align 4
  %14 = sext i32 %13 to i64
  %15 = mul i64 %12, %14
  %16 = getelementptr inbounds i8, ptr %7, i64 %15
  ret ptr %16
}

; Function Attrs: mustprogress nounwind uwtable
define linkonce_odr hidden noundef ptr @_ZN2cv3Mat3ptrEi(ptr noundef nonnull align 8 dereferenceable(96) %0, i32 noundef %1) #5 comdat align 2 {
  %3 = alloca ptr, align 8
  %4 = alloca i32, align 4
  store ptr %0, ptr %3, align 8
  store i32 %1, ptr %4, align 4
  %5 = load ptr, ptr %3, align 8
  %6 = getelementptr inbounds %"class.cv::Mat", ptr %5, i32 0, i32 4
  %7 = load ptr, ptr %6, align 8
  %8 = getelementptr inbounds %"class.cv::Mat", ptr %5, i32 0, i32 11
  %9 = getelementptr inbounds %"struct.cv::MatStep", ptr %8, i32 0, i32 0
  %10 = load ptr, ptr %9, align 8
  %11 = getelementptr inbounds i64, ptr %10, i64 0
  %12 = load i64, ptr %11, align 8
  %13 = load i32, ptr %4, align 4
  %14 = sext i32 %13 to i64
  %15 = mul i64 %12, %14
  %16 = getelementptr inbounds i8, ptr %7, i64 %15
  ret ptr %16
}

; Function Attrs: mustprogress nounwind uwtable
define linkonce_odr hidden noundef ptr @_ZN2cv3Mat3ptrIdEEPT_i(ptr noundef nonnull align 8 dereferenceable(96) %0, i32 noundef %1) #5 comdat align 2 {
  %3 = alloca ptr, align 8
  %4 = alloca i32, align 4
  store ptr %0, ptr %3, align 8
  store i32 %1, ptr %4, align 4
  %5 = load ptr, ptr %3, align 8
  %6 = getelementptr inbounds %"class.cv::Mat", ptr %5, i32 0, i32 4
  %7 = load ptr, ptr %6, align 8
  %8 = getelementptr inbounds %"class.cv::Mat", ptr %5, i32 0, i32 11
  %9 = getelementptr inbounds %"struct.cv::MatStep", ptr %8, i32 0, i32 0
  %10 = load ptr, ptr %9, align 8
  %11 = getelementptr inbounds i64, ptr %10, i64 0
  %12 = load i64, ptr %11, align 8
  %13 = load i32, ptr %4, align 4
  %14 = sext i32 %13 to i64
  %15 = mul i64 %12, %14
  %16 = getelementptr inbounds i8, ptr %7, i64 %15
  ret ptr %16
}

; Function Attrs: mustprogress uwtable
define internal void @_ZN2cv8ximgprocL17VerticalIIRFilterIsEEvRNS_3MatES3_RKNS_5RangeEdd(ptr noundef nonnull align 8 dereferenceable(96) %0, ptr noundef nonnull align 8 dereferenceable(96) %1, ptr noundef nonnull align 4 dereferenceable(8) %2, double noundef %3, double noundef %4) #4 personality ptr @__gxx_personality_v0 {
  %6 = alloca ptr, align 8
  %7 = alloca ptr, align 8
  %8 = alloca ptr, align 8
  %9 = alloca double, align 8
  %10 = alloca double, align 8
  %11 = alloca ptr, align 8
  %12 = alloca i32, align 4
  %13 = alloca %"class.cv::Mat", align 8
  %14 = alloca %"class.cv::Mat", align 8
  %15 = alloca ptr, align 8
  %16 = alloca i32, align 4
  %17 = alloca ptr, align 8
  %18 = alloca ptr, align 8
  %19 = alloca i32, align 4
  %20 = alloca i32, align 4
  %21 = alloca double, align 8
  %22 = alloca double, align 8
  %23 = alloca double, align 8
  %24 = alloca i32, align 4
  %25 = alloca ptr, align 8
  %26 = alloca double, align 8
  %27 = alloca i32, align 4
  %28 = alloca i32, align 4
  %29 = alloca i32, align 4
  store ptr %0, ptr %6, align 8
  store ptr %1, ptr %7, align 8
  store ptr %2, ptr %8, align 8
  store double %3, ptr %9, align 8
  store double %4, ptr %10, align 8
  %30 = load ptr, ptr %6, align 8
  %31 = getelementptr inbounds %"class.cv::Mat", ptr %30, i32 0, i32 2
  %32 = load i32, ptr %31, align 8
  %33 = load ptr, ptr %6, align 8
  %34 = getelementptr inbounds %"class.cv::Mat", ptr %33, i32 0, i32 3
  %35 = load i32, ptr %34, align 4
  %36 = icmp sgt i32 %32, %35
  br i1 %36, label %37, label %41

37:                                               ; preds = %5
  %38 = load ptr, ptr %6, align 8
  %39 = getelementptr inbounds %"class.cv::Mat", ptr %38, i32 0, i32 2
  %40 = load i32, ptr %39, align 8
  br label %45

41:                                               ; preds = %5
  %42 = load ptr, ptr %6, align 8
  %43 = getelementptr inbounds %"class.cv::Mat", ptr %42, i32 0, i32 3
  %44 = load i32, ptr %43, align 4
  br label %45

45:                                               ; preds = %41, %37
  %46 = phi i32 [ %40, %37 ], [ %44, %41 ]
  store i32 %46, ptr %12, align 4
  %47 = load i32, ptr %12, align 4
  call void @_ZN2cv3MatC1Eiii(ptr noundef nonnull align 8 dereferenceable(96) %13, i32 noundef 1, i32 noundef %47, i32 noundef 6)
  %48 = load i32, ptr %12, align 4
  invoke void @_ZN2cv3MatC1Eiii(ptr noundef nonnull align 8 dereferenceable(96) %14, i32 noundef 1, i32 noundef %48, i32 noundef 6)
          to label %49 unwind label %170

49:                                               ; preds = %45
  %50 = call noundef ptr @_ZN2cv3Mat3ptrIdEEPT_i(ptr noundef nonnull align 8 dereferenceable(96) %13, i32 noundef 0)
  store ptr %50, ptr %17, align 8
  %51 = call noundef ptr @_ZN2cv3Mat3ptrIdEEPT_i(ptr noundef nonnull align 8 dereferenceable(96) %14, i32 noundef 0)
  store ptr %51, ptr %18, align 8
  %52 = load ptr, ptr %6, align 8
  %53 = getelementptr inbounds %"class.cv::Mat", ptr %52, i32 0, i32 2
  %54 = load i32, ptr %53, align 8
  store i32 %54, ptr %19, align 4
  %55 = load ptr, ptr %6, align 8
  %56 = getelementptr inbounds %"class.cv::Mat", ptr %55, i32 0, i32 3
  %57 = load i32, ptr %56, align 4
  store i32 %57, ptr %20, align 4
  %58 = load double, ptr %9, align 8
  %59 = fneg double %58
  %60 = call double @exp(double noundef %59) #3
  %61 = fmul double -2.000000e+00, %60
  %62 = load double, ptr %10, align 8
  %63 = call double @cosh(double noundef %62) #3
  %64 = fmul double %61, %63
  store double %64, ptr %21, align 8
  %65 = load double, ptr %9, align 8
  %66 = fneg double %65
  %67 = call double @exp(double noundef %66) #3
  %68 = fmul double 2.000000e+00, %67
  %69 = load double, ptr %10, align 8
  %70 = call double @cosh(double noundef %69) #3
  %71 = load double, ptr %9, align 8
  %72 = fmul double -2.000000e+00, %71
  %73 = call double @exp(double noundef %72) #3
  %74 = fneg double %73
  %75 = call double @llvm.fmuladd.f64(double %68, double %70, double %74)
  %76 = fsub double %75, 1.000000e+00
  store double %76, ptr %22, align 8
  %77 = load double, ptr %9, align 8
  %78 = fmul double -2.000000e+00, %77
  %79 = call double @exp(double noundef %78) #3
  store double %79, ptr %23, align 8
  %80 = load ptr, ptr %8, align 8
  %81 = getelementptr inbounds %"class.cv::Range", ptr %80, i32 0, i32 0
  %82 = load i32, ptr %81, align 4
  store i32 %82, ptr %24, align 4
  br label %83

83:                                               ; preds = %290, %49
  %84 = load i32, ptr %24, align 4
  %85 = load ptr, ptr %8, align 8
  %86 = getelementptr inbounds %"class.cv::Range", ptr %85, i32 0, i32 1
  %87 = load i32, ptr %86, align 4
  %88 = icmp slt i32 %84, %87
  br i1 %88, label %89, label %293

89:                                               ; preds = %83
  %90 = load ptr, ptr %6, align 8
  %91 = call noundef ptr @_ZN2cv3Mat3ptrEi(ptr noundef nonnull align 8 dereferenceable(96) %90, i32 noundef 0)
  %92 = load i32, ptr %24, align 4
  %93 = sext i32 %92 to i64
  %94 = getelementptr inbounds i16, ptr %91, i64 %93
  store ptr %94, ptr %25, align 8
  %95 = load ptr, ptr %7, align 8
  %96 = call noundef ptr @_ZN2cv3Mat3ptrIfEEPT_i(ptr noundef nonnull align 8 dereferenceable(96) %95, i32 noundef 0)
  %97 = load i32, ptr %24, align 4
  %98 = sext i32 %97 to i64
  %99 = getelementptr inbounds float, ptr %96, i64 %98
  store ptr %99, ptr %11, align 8
  %100 = load ptr, ptr %25, align 8
  %101 = load i16, ptr %100, align 2
  %102 = sitofp i16 %101 to double
  store double %102, ptr %26, align 8
  %103 = load ptr, ptr %25, align 8
  %104 = load i16, ptr %103, align 2
  %105 = sitofp i16 %104 to double
  %106 = load ptr, ptr %17, align 8
  %107 = getelementptr inbounds double, ptr %106, i64 0
  store double %105, ptr %107, align 8
  %108 = load i32, ptr %20, align 4
  %109 = load ptr, ptr %25, align 8
  %110 = sext i32 %108 to i64
  %111 = getelementptr inbounds i16, ptr %109, i64 %110
  store ptr %111, ptr %25, align 8
  %112 = load ptr, ptr %25, align 8
  %113 = load i16, ptr %112, align 2
  %114 = sext i16 %113 to i32
  %115 = sitofp i32 %114 to double
  %116 = load double, ptr %21, align 8
  %117 = load ptr, ptr %17, align 8
  %118 = getelementptr inbounds double, ptr %117, i64 0
  %119 = load double, ptr %118, align 8
  %120 = fneg double %116
  %121 = call double @llvm.fmuladd.f64(double %120, double %119, double %115)
  %122 = load double, ptr %23, align 8
  %123 = load double, ptr %26, align 8
  %124 = fneg double %122
  %125 = call double @llvm.fmuladd.f64(double %124, double %123, double %121)
  %126 = load ptr, ptr %17, align 8
  %127 = getelementptr inbounds double, ptr %126, i64 1
  store double %125, ptr %127, align 8
  %128 = load i32, ptr %20, align 4
  %129 = load ptr, ptr %25, align 8
  %130 = sext i32 %128 to i64
  %131 = getelementptr inbounds i16, ptr %129, i64 %130
  store ptr %131, ptr %25, align 8
  store i32 2, ptr %27, align 4
  br label %132

132:                                              ; preds = %163, %89
  %133 = load i32, ptr %27, align 4
  %134 = load i32, ptr %19, align 4
  %135 = icmp slt i32 %133, %134
  br i1 %135, label %136, label %174

136:                                              ; preds = %132
  %137 = load ptr, ptr %25, align 8
  %138 = load i16, ptr %137, align 2
  %139 = sext i16 %138 to i32
  %140 = sitofp i32 %139 to double
  %141 = load double, ptr %21, align 8
  %142 = load ptr, ptr %17, align 8
  %143 = load i32, ptr %27, align 4
  %144 = sub nsw i32 %143, 1
  %145 = sext i32 %144 to i64
  %146 = getelementptr inbounds double, ptr %142, i64 %145
  %147 = load double, ptr %146, align 8
  %148 = fneg double %141
  %149 = call double @llvm.fmuladd.f64(double %148, double %147, double %140)
  %150 = load double, ptr %23, align 8
  %151 = load ptr, ptr %17, align 8
  %152 = load i32, ptr %27, align 4
  %153 = sub nsw i32 %152, 2
  %154 = sext i32 %153 to i64
  %155 = getelementptr inbounds double, ptr %151, i64 %154
  %156 = load double, ptr %155, align 8
  %157 = fneg double %150
  %158 = call double @llvm.fmuladd.f64(double %157, double %156, double %149)
  %159 = load ptr, ptr %17, align 8
  %160 = load i32, ptr %27, align 4
  %161 = sext i32 %160 to i64
  %162 = getelementptr inbounds double, ptr %159, i64 %161
  store double %158, ptr %162, align 8
  br label %163

163:                                              ; preds = %136
  %164 = load i32, ptr %27, align 4
  %165 = add nsw i32 %164, 1
  store i32 %165, ptr %27, align 4
  %166 = load i32, ptr %20, align 4
  %167 = load ptr, ptr %25, align 8
  %168 = sext i32 %166 to i64
  %169 = getelementptr inbounds i16, ptr %167, i64 %168
  store ptr %169, ptr %25, align 8
  br label %132, !llvm.loop !15

170:                                              ; preds = %45
  %171 = landingpad { ptr, i32 }
          cleanup
  %172 = extractvalue { ptr, i32 } %171, 0
  store ptr %172, ptr %15, align 8
  %173 = extractvalue { ptr, i32 } %171, 1
  store i32 %173, ptr %16, align 4
  call void @_ZN2cv3MatD1Ev(ptr noundef nonnull align 8 dereferenceable(96) %13) #3
  br label %294

174:                                              ; preds = %132
  %175 = load ptr, ptr %6, align 8
  %176 = load i32, ptr %19, align 4
  %177 = sub nsw i32 %176, 1
  %178 = call noundef ptr @_ZN2cv3Mat3ptrEi(ptr noundef nonnull align 8 dereferenceable(96) %175, i32 noundef %177)
  %179 = load i32, ptr %24, align 4
  %180 = sext i32 %179 to i64
  %181 = getelementptr inbounds i16, ptr %178, i64 %180
  store ptr %181, ptr %25, align 8
  %182 = load ptr, ptr %25, align 8
  %183 = load i16, ptr %182, align 2
  %184 = sitofp i16 %183 to double
  store double %184, ptr %26, align 8
  %185 = load ptr, ptr %25, align 8
  %186 = load i16, ptr %185, align 2
  %187 = sitofp i16 %186 to double
  %188 = load ptr, ptr %18, align 8
  %189 = load i32, ptr %19, align 4
  %190 = sub nsw i32 %189, 1
  %191 = sext i32 %190 to i64
  %192 = getelementptr inbounds double, ptr %188, i64 %191
  store double %187, ptr %192, align 8
  %193 = load i32, ptr %20, align 4
  %194 = load ptr, ptr %25, align 8
  %195 = sext i32 %193 to i64
  %196 = sub i64 0, %195
  %197 = getelementptr inbounds i16, ptr %194, i64 %196
  store ptr %197, ptr %25, align 8
  %198 = load ptr, ptr %25, align 8
  %199 = load i16, ptr %198, align 2
  %200 = sext i16 %199 to i32
  %201 = sitofp i32 %200 to double
  %202 = load double, ptr %21, align 8
  %203 = load ptr, ptr %18, align 8
  %204 = load i32, ptr %19, align 4
  %205 = sub nsw i32 %204, 1
  %206 = sext i32 %205 to i64
  %207 = getelementptr inbounds double, ptr %203, i64 %206
  %208 = load double, ptr %207, align 8
  %209 = fneg double %202
  %210 = call double @llvm.fmuladd.f64(double %209, double %208, double %201)
  %211 = load ptr, ptr %18, align 8
  %212 = load i32, ptr %19, align 4
  %213 = sub nsw i32 %212, 2
  %214 = sext i32 %213 to i64
  %215 = getelementptr inbounds double, ptr %211, i64 %214
  store double %210, ptr %215, align 8
  %216 = load i32, ptr %20, align 4
  %217 = load ptr, ptr %25, align 8
  %218 = sext i32 %216 to i64
  %219 = sub i64 0, %218
  %220 = getelementptr inbounds i16, ptr %217, i64 %219
  store ptr %220, ptr %25, align 8
  %221 = load i32, ptr %19, align 4
  %222 = sub nsw i32 %221, 3
  store i32 %222, ptr %28, align 4
  br label %223

223:                                              ; preds = %253, %174
  %224 = load i32, ptr %28, align 4
  %225 = icmp sge i32 %224, 0
  br i1 %225, label %226, label %261

226:                                              ; preds = %223
  %227 = load ptr, ptr %25, align 8
  %228 = load i16, ptr %227, align 2
  %229 = sext i16 %228 to i32
  %230 = sitofp i32 %229 to double
  %231 = load double, ptr %21, align 8
  %232 = load ptr, ptr %18, align 8
  %233 = load i32, ptr %28, align 4
  %234 = add nsw i32 %233, 1
  %235 = sext i32 %234 to i64
  %236 = getelementptr inbounds double, ptr %232, i64 %235
  %237 = load double, ptr %236, align 8
  %238 = fneg double %231
  %239 = call double @llvm.fmuladd.f64(double %238, double %237, double %230)
  %240 = load double, ptr %23, align 8
  %241 = load ptr, ptr %18, align 8
  %242 = load i32, ptr %28, align 4
  %243 = add nsw i32 %242, 2
  %244 = sext i32 %243 to i64
  %245 = getelementptr inbounds double, ptr %241, i64 %244
  %246 = load double, ptr %245, align 8
  %247 = fneg double %240
  %248 = call double @llvm.fmuladd.f64(double %247, double %246, double %239)
  %249 = load ptr, ptr %18, align 8
  %250 = load i32, ptr %28, align 4
  %251 = sext i32 %250 to i64
  %252 = getelementptr inbounds double, ptr %249, i64 %251
  store double %248, ptr %252, align 8
  br label %253

253:                                              ; preds = %226
  %254 = load i32, ptr %28, align 4
  %255 = add nsw i32 %254, -1
  store i32 %255, ptr %28, align 4
  %256 = load i32, ptr %20, align 4
  %257 = load ptr, ptr %25, align 8
  %258 = sext i32 %256 to i64
  %259 = sub i64 0, %258
  %260 = getelementptr inbounds i16, ptr %257, i64 %259
  store ptr %260, ptr %25, align 8
  br label %223, !llvm.loop !16

261:                                              ; preds = %223
  store i32 0, ptr %29, align 4
  br label %262

262:                                              ; preds = %282, %261
  %263 = load i32, ptr %29, align 4
  %264 = load i32, ptr %19, align 4
  %265 = icmp slt i32 %263, %264
  br i1 %265, label %266, label %289

266:                                              ; preds = %262
  %267 = load double, ptr %22, align 8
  %268 = load ptr, ptr %18, align 8
  %269 = load i32, ptr %29, align 4
  %270 = sext i32 %269 to i64
  %271 = getelementptr inbounds double, ptr %268, i64 %270
  %272 = load double, ptr %271, align 8
  %273 = load ptr, ptr %17, align 8
  %274 = load i32, ptr %29, align 4
  %275 = sext i32 %274 to i64
  %276 = getelementptr inbounds double, ptr %273, i64 %275
  %277 = load double, ptr %276, align 8
  %278 = fsub double %272, %277
  %279 = fmul double %267, %278
  %280 = fptrunc double %279 to float
  %281 = load ptr, ptr %11, align 8
  store float %280, ptr %281, align 4
  br label %282

282:                                              ; preds = %266
  %283 = load i32, ptr %29, align 4
  %284 = add nsw i32 %283, 1
  store i32 %284, ptr %29, align 4
  %285 = load i32, ptr %20, align 4
  %286 = load ptr, ptr %11, align 8
  %287 = sext i32 %285 to i64
  %288 = getelementptr inbounds float, ptr %286, i64 %287
  store ptr %288, ptr %11, align 8
  br label %262, !llvm.loop !17

289:                                              ; preds = %262
  br label %290

290:                                              ; preds = %289
  %291 = load i32, ptr %24, align 4
  %292 = add nsw i32 %291, 1
  store i32 %292, ptr %24, align 4
  br label %83, !llvm.loop !18

293:                                              ; preds = %83
  call void @_ZN2cv3MatD1Ev(ptr noundef nonnull align 8 dereferenceable(96) %14) #3
  call void @_ZN2cv3MatD1Ev(ptr noundef nonnull align 8 dereferenceable(96) %13) #3
  ret void

294:                                              ; preds = %170
  %295 = load ptr, ptr %15, align 8
  %296 = load i32, ptr %16, align 4
  %297 = insertvalue { ptr, i32 } poison, ptr %295, 0
  %298 = insertvalue { ptr, i32 } %297, i32 %296, 1
  resume { ptr, i32 } %298
}