; Function Attrs: mustprogress uwtable
define internal fastcc void @_ZN2cv8ximgprocL17VerticalIIRFilterIsEEvRNS_3MatES3_RKNS_5RangeEdd(ptr nocapture noundef nonnull readonly align 8 dereferenceable(96) %0, ptr nocapture noundef nonnull readonly align 8 dereferenceable(96) %1, ptr nocapture noundef nonnull readonly align 4 dereferenceable(8) %2, double noundef %3, double noundef %4) unnamed_addr #3 personality ptr @__gxx_personality_v0 {
  %6 = alloca %"class.cv::Mat", align 8
  %7 = alloca %"class.cv::Mat", align 8
  %8 = getelementptr inbounds i8, ptr %0, i64 8
  %9 = load i32, ptr %8, align 8
  %10 = getelementptr inbounds i8, ptr %0, i64 12
  %11 = load i32, ptr %10, align 4
  %. = tail call i32 @llvm.smax.i32(i32 %9, i32 %11)
  call void @_ZN2cv3MatC1Eiii(ptr noundef nonnull align 8 dereferenceable(96) %6, i32 noundef 1, i32 noundef %., i32 noundef 6)
  invoke void @_ZN2cv3MatC1Eiii(ptr noundef nonnull align 8 dereferenceable(96) %7, i32 noundef 1, i32 noundef %., i32 noundef 6)
          to label %12 unwind label %74

12:                                               ; preds = %5
  %13 = getelementptr inbounds i8, ptr %6, i64 16
  %14 = load ptr, ptr %13, align 8
  %15 = getelementptr inbounds i8, ptr %7, i64 16
  %16 = load ptr, ptr %15, align 8
  %17 = load i32, ptr %8, align 8
  %18 = load i32, ptr %10, align 4
  %19 = fneg double %3
  %20 = call double @exp(double noundef %19) #14
  %21 = call double @cosh(double noundef %4) #14
  %22 = call double @exp(double noundef %19) #14
  %23 = fmul double %22, 2.000000e+00
  %24 = call double @cosh(double noundef %4) #14
  %25 = fmul double %3, -2.000000e+00
  %26 = call double @exp(double noundef %25) #14
  %27 = fneg double %26
  %28 = call double @llvm.fmuladd.f64(double %23, double %24, double %27)
  %29 = fadd double %28, -1.000000e+00
  %30 = call double @exp(double noundef %25) #14
  %31 = load i32, ptr %2, align 4
  %32 = getelementptr inbounds i8, ptr %2, i64 4
  %33 = load i32, ptr %32, align 4
  %34 = icmp slt i32 %31, %33
  br i1 %34, label %.lr.ph113, label %._crit_edge114

.lr.ph113:                                        ; preds = %12
  %invariant.gep = getelementptr i8, ptr %16, i64 -16
  %35 = getelementptr inbounds i8, ptr %0, i64 16
  %36 = getelementptr inbounds i8, ptr %0, i64 72
  %37 = getelementptr inbounds i8, ptr %1, i64 16
  %38 = sext i32 %18 to i64
  %39 = fmul double %20, 2.000000e+00
  %40 = fmul double %39, %21
  %41 = fneg double %30
  %42 = getelementptr inbounds i8, ptr %14, i64 8
  %43 = icmp sgt i32 %17, 2
  %44 = add nsw i32 %17, -1
  %45 = sext i32 %44 to i64
  %46 = getelementptr inbounds double, ptr %16, i64 %45
  %47 = sub nsw i64 0, %38
  %48 = sext i32 %17 to i64
  %gep = getelementptr double, ptr %invariant.gep, i64 %48
  %49 = add i32 %17, -3
  %50 = icmp sgt i32 %17, 0
  %51 = zext i32 %49 to i64
  %52 = sext i32 %31 to i64
  %wide.trip.count = zext nneg i32 %17 to i64
  %wide.trip.count122 = zext nneg i32 %17 to i64
  %scevgep = getelementptr i8, ptr %14, i64 8
  %53 = shl nuw nsw i64 %51, 3
  %54 = getelementptr i8, ptr %16, i64 %53
  %scevgep127 = getelementptr i8, ptr %54, i64 8
  br label %55

55:                                               ; preds = %.lr.ph113, %._crit_edge110
  %indvars.iv124 = phi i64 [ %52, %.lr.ph113 ], [ %indvars.iv.next125, %._crit_edge110 ]
  %56 = load ptr, ptr %35, align 8
  %57 = getelementptr inbounds i16, ptr %56, i64 %indvars.iv124
  %58 = load ptr, ptr %37, align 8
  %59 = getelementptr inbounds float, ptr %58, i64 %indvars.iv124
  %60 = load i16, ptr %57, align 2
  %61 = sitofp i16 %60 to double
  store double %61, ptr %14, align 8
  %62 = getelementptr inbounds i16, ptr %57, i64 %38
  %63 = load i16, ptr %62, align 2
  %64 = sitofp i16 %63 to double
  %65 = call double @llvm.fmuladd.f64(double %40, double %61, double %64)
  %66 = call double @llvm.fmuladd.f64(double %41, double %61, double %65)
  store double %66, ptr %42, align 8
  br i1 %43, label %.lr.ph.preheader, label %._crit_edge

.lr.ph.preheader:                                 ; preds = %55
  %load_initial = load double, ptr %scevgep, align 8
  br label %.lr.ph

.lr.ph:                                           ; preds = %.lr.ph.preheader, %.lr.ph
  %store_forwarded = phi double [ %load_initial, %.lr.ph.preheader ], [ %73, %.lr.ph ]
  %indvars.iv = phi i64 [ 2, %.lr.ph.preheader ], [ %indvars.iv.next, %.lr.ph ]
  %.pn101 = phi ptr [ %62, %.lr.ph.preheader ], [ %.094, %.lr.ph ]
  %.094 = getelementptr inbounds i16, ptr %.pn101, i64 %38
  %67 = load i16, ptr %.094, align 2
  %68 = sitofp i16 %67 to double
  %69 = getelementptr double, ptr %14, i64 %indvars.iv
  %70 = call double @llvm.fmuladd.f64(double %40, double %store_forwarded, double %68)
  %71 = getelementptr i8, ptr %69, i64 -16
  %72 = load double, ptr %71, align 8
  %73 = call double @llvm.fmuladd.f64(double %41, double %72, double %70)
  store double %73, ptr %69, align 8
  %indvars.iv.next = add nuw nsw i64 %indvars.iv, 1
  %exitcond.not = icmp eq i64 %indvars.iv.next, %wide.trip.count
  br i1 %exitcond.not, label %._crit_edge, label %.lr.ph, !llvm.loop !20

74:                                               ; preds = %5
  %75 = landingpad { ptr, i32 }
          cleanup
  call void @_ZN2cv3MatD1Ev(ptr noundef nonnull align 8 dereferenceable(96) %6) #14
  resume { ptr, i32 } %75

._crit_edge:                                      ; preds = %.lr.ph, %55
  %76 = load ptr, ptr %35, align 8
  %77 = load ptr, ptr %36, align 8
  %78 = load i64, ptr %77, align 8
  %79 = mul i64 %78, %45
  %80 = getelementptr inbounds i8, ptr %76, i64 %79
  %81 = getelementptr inbounds i16, ptr %80, i64 %indvars.iv124
  %82 = load i16, ptr %81, align 2
  %83 = sitofp i16 %82 to double
  store double %83, ptr %46, align 8
  %84 = getelementptr inbounds i16, ptr %81, i64 %47
  %85 = load i16, ptr %84, align 2
  %86 = sitofp i16 %85 to double
  %87 = call double @llvm.fmuladd.f64(double %40, double %83, double %86)
  store double %87, ptr %gep, align 8
  br i1 %43, label %.lr.ph106.preheader, label %.preheader

.lr.ph106.preheader:                              ; preds = %._crit_edge
  %load_initial128 = load double, ptr %scevgep127, align 8
  br label %.lr.ph106

.preheader:                                       ; preds = %.lr.ph106, %._crit_edge
  br i1 %50, label %.lr.ph109, label %._crit_edge110

.lr.ph106:                                        ; preds = %.lr.ph106.preheader, %.lr.ph106
  %store_forwarded129 = phi double [ %load_initial128, %.lr.ph106.preheader ], [ %94, %.lr.ph106 ]
  %indvars.iv116 = phi i64 [ %51, %.lr.ph106.preheader ], [ %indvars.iv.next117, %.lr.ph106 ]
  %.pn100103 = phi ptr [ %84, %.lr.ph106.preheader ], [ %.1, %.lr.ph106 ]
  %.1 = getelementptr inbounds i16, ptr %.pn100103, i64 %47
  %88 = load i16, ptr %.1, align 2
  %89 = sitofp i16 %88 to double
  %90 = getelementptr inbounds double, ptr %16, i64 %indvars.iv116
  %91 = call double @llvm.fmuladd.f64(double %40, double %store_forwarded129, double %89)
  %92 = getelementptr inbounds i8, ptr %90, i64 16
  %93 = load double, ptr %92, align 8
  %94 = call double @llvm.fmuladd.f64(double %41, double %93, double %91)
  store double %94, ptr %90, align 8
  %indvars.iv.next117 = add nsw i64 %indvars.iv116, -1
  %95 = icmp sgt i64 %indvars.iv116, 0
  br i1 %95, label %.lr.ph106, label %.preheader, !llvm.loop !21

.lr.ph109:                                        ; preds = %.preheader, %.lr.ph109
  %indvars.iv119 = phi i64 [ %indvars.iv.next120, %.lr.ph109 ], [ 0, %.preheader ]
  %.096107 = phi ptr [ %103, %.lr.ph109 ], [ %59, %.preheader ]
  %96 = getelementptr inbounds double, ptr %16, i64 %indvars.iv119
  %97 = load double, ptr %96, align 8
  %98 = getelementptr inbounds double, ptr %14, i64 %indvars.iv119
  %99 = load double, ptr %98, align 8
  %100 = fsub double %97, %99
  %101 = fmul double %29, %100
  %102 = fptrunc double %101 to float
  store float %102, ptr %.096107, align 4
  %indvars.iv.next120 = add nuw nsw i64 %indvars.iv119, 1
  %103 = getelementptr inbounds float, ptr %.096107, i64 %38
  %exitcond123.not = icmp eq i64 %indvars.iv.next120, %wide.trip.count122
  br i1 %exitcond123.not, label %._crit_edge110, label %.lr.ph109, !llvm.loop !22

._crit_edge110:                                   ; preds = %.lr.ph109, %.preheader
  %indvars.iv.next125 = add nsw i64 %indvars.iv124, 1
  %104 = load i32, ptr %32, align 4
  %105 = sext i32 %104 to i64
  %106 = icmp slt i64 %indvars.iv.next125, %105
  br i1 %106, label %55, label %._crit_edge114, !llvm.loop !23

._crit_edge114:                                   ; preds = %._crit_edge110, %12
  call void @_ZN2cv3MatD1Ev(ptr noundef nonnull align 8 dereferenceable(96) %7) #14
  call void @_ZN2cv3MatD1Ev(ptr noundef nonnull align 8 dereferenceable(96) %6) #14
  ret void
}